target datalayout = "e-m:e-p270:32:32-p271:32:32-p272:64:64-i64:64-i128:128-f80:128-n8:16:32:64-S128"
target triple = "x86_64-pc-linux-gnu"

%"class.gmx::Any" = type { %"class.std::unique_ptr.17" }
%"class.std::unique_ptr.17" = type { %"struct.std::__uniq_ptr_data.18" }
%"struct.std::__uniq_ptr_data.18" = type { %"class.std::__uniq_ptr_impl.19" }
%"class.std::__uniq_ptr_impl.19" = type { %"class.std::tuple.20" }
%"class.std::tuple.20" = type { %"struct.std::_Tuple_impl.21" }
%"struct.std::_Tuple_impl.21" = type { %"struct.std::_Head_base.24" }
%"struct.std::_Head_base.24" = type { ptr }
%"class.gmx::KeyValueTreeValue" = type { %"class.gmx::Any" }
%"class.std::_Function_base" = type { %"union.std::_Any_data", ptr }
%"union.std::_Any_data" = type { %"union.std::_Nocopy_types" }
%"union.std::_Nocopy_types" = type { { i64, i64 } }
%"class.gmx::KeyValueTreeObjectBuilder" = type { ptr }
%class.anon.192 = type { %"class.std::function.193" }
%"class.std::function.193" = type { %"class.std::_Function_base", ptr }

; Function Attrs: mustprogress nounwind uwtable
define linkonce_odr noundef zeroext i1 @_ZNKSt14_Function_base8_M_emptyEv(ptr noundef nonnull align 8 dereferenceable(24) %0) #0 comdat align 2 {
  %2 = alloca ptr, align 8
  store ptr %0, ptr %2, align 8
  %3 = load ptr, ptr %2, align 8
  %4 = getelementptr inbounds %"class.std::_Function_base", ptr %3, i32 0, i32 1
  %5 = load ptr, ptr %4, align 8
  %6 = icmp ne ptr %5, null
  %7 = xor i1 %6, true
  ret i1 %7
}

; Function Attrs: mustprogress uwtable
define linkonce_odr void @_ZNKSt8functionIFvPN3gmx25KeyValueTreeObjectBuilderERKNS0_3AnyEEEclES2_S5_(ptr noundef nonnull align 8 dereferenceable(32) %0, ptr noundef %1, ptr noundef nonnull align 8 dereferenceable(8) %2) #2 comdat align 2 {
  %4 = alloca ptr, align 8
  %5 = alloca ptr, align 8
  %6 = alloca ptr, align 8
  store ptr %0, ptr %4, align 8
  store ptr %1, ptr %5, align 8
  store ptr %2, ptr %6, align 8
  %7 = load ptr, ptr %4, align 8
  %8 = call noundef zeroext i1 @_ZNKSt14_Function_base8_M_emptyEv(ptr noundef nonnull align 8 dereferenceable(24) %7)
  br i1 %8, label %9, label %10

9:                                                ; preds = %3
  call void @_ZSt25__throw_bad_function_callv() #18
  unreachable

10:                                               ; preds = %3
  %11 = getelementptr inbounds %"class.std::function.193", ptr %7, i32 0, i32 1
  %12 = load ptr, ptr %11, align 8
  %13 = getelementptr inbounds %"class.std::_Function_base", ptr %7, i32 0, i32 0
  %14 = load ptr, ptr %6, align 8
  call void %12(ptr noundef nonnull align 8 dereferenceable(16) %13, ptr noundef nonnull align 8 dereferenceable(8) %5, ptr noundef nonnull align 8 dereferenceable(8) %14)
  ret void
}

; Function Attrs: mustprogress nounwind uwtable
define linkonce_odr noundef nonnull align 8 dereferenceable(8) ptr @_ZNK3gmx17KeyValueTreeValue5asAnyEv(ptr noundef nonnull align 8 dereferenceable(8) %0) #0 comdat align 2 {
  %2 = alloca ptr, align 8
  store ptr %0, ptr %2, align 8
  %3 = load ptr, ptr %2, align 8
  %4 = getelementptr inbounds %"class.gmx::KeyValueTreeValue", ptr %3, i32 0, i32 0
  ret ptr %4
}

; Function Attrs: mustprogress uwtable
define internal void @"_ZZN3gmx32KeyValueTreeTransformRuleBuilder20addTransformToObjectERKSt8functionIFvPNS_25KeyValueTreeObjectBuilderERKNS_3AnyEEEENK3$_0clEPNS_24KeyValueTreeValueBuilderERKNS_17KeyValueTreeValueE"(ptr noundef nonnull align 8 dereferenceable(32) %0, ptr noundef %1, ptr noundef nonnull align 8 dereferenceable(8) %2) #2 align 2 {
  %4 = alloca ptr, align 8
  %5 = alloca ptr, align 8
  %6 = alloca ptr, align 8
  %7 = alloca %"class.gmx::KeyValueTreeObjectBuilder", align 8
  store ptr %0, ptr %4, align 8
  store ptr %1, ptr %5, align 8
  store ptr %2, ptr %6, align 8
  %8 = load ptr, ptr %4, align 8
  %9 = load ptr, ptr %5, align 8
  %10 = call ptr @_ZN3gmx24KeyValueTreeValueBuilder12createObjectEv(ptr noundef nonnull align 8 dereferenceable(8) %9)
  %11 = getelementptr inbounds %"class.gmx::KeyValueTreeObjectBuilder", ptr %7, i32 0, i32 0
  store ptr %10, ptr %11, align 8
  %12 = getelementptr inbounds %class.anon.192, ptr %8, i32 0, i32 0
  %13 = load ptr, ptr %6, align 8
  %14 = call noundef nonnull align 8 dereferenceable(8) ptr @_ZNK3gmx17KeyValueTreeValue5asAnyEv(ptr noundef nonnull align 8 dereferenceable(8) %13)
  call void @_ZNKSt8functionIFvPN3gmx25KeyValueTreeObjectBuilderERKNS0_3AnyEEEclES2_S5_(ptr noundef nonnull align 8 dereferenceable(32) %12, ptr noundef %7, ptr noundef nonnull align 8 dereferenceable(8) %14)
  ret void
}

; Function Attrs: mustprogress nounwind uwtable
define linkonce_odr noundef ptr @_ZNKSt9_Any_data9_M_accessEv(ptr noundef nonnull align 8 dereferenceable(16) %0) #0 comdat align 2 {
  %2 = alloca ptr, align 8
  store ptr %0, ptr %2, align 8
  %3 = load ptr, ptr %2, align 8
  %4 = getelementptr inbounds [16 x i8], ptr %3, i64 0, i64 0
  ret ptr %4
}

; Function Attrs: mustprogress uwtable
define internal void @"_ZSt13__invoke_implIvRZN3gmx32KeyValueTreeTransformRuleBuilder20addTransformToObjectERKSt8functionIFvPNS0_25KeyValueTreeObjectBuilderERKNS0_3AnyEEEE3$_0JPNS0_24KeyValueTreeValueBuilderERKNS0_17KeyValueTreeValueEEET_St14__invoke_otherOT0_DpOT1_"(ptr noundef nonnull align 8 dereferenceable(32) %0, ptr noundef nonnull align 8 dereferenceable(8) %1, ptr noundef nonnull align 8 dereferenceable(8) %2) #2 {
  %4 = alloca ptr, align 8
  %5 = alloca ptr, align 8
  %6 = alloca ptr, align 8
  store ptr %0, ptr %4, align 8
  store ptr %1, ptr %5, align 8
  store ptr %2, ptr %6, align 8
  %7 = load ptr, ptr %4, align 8
  %8 = load ptr, ptr %5, align 8
  %9 = load ptr, ptr %8, align 8
  %10 = load ptr, ptr %6, align 8
  call void @"_ZZN3gmx32KeyValueTreeTransformRuleBuilder20addTransformToObjectERKSt8functionIFvPNS_25KeyValueTreeObjectBuilderERKNS_3AnyEEEENK3$_0clEPNS_24KeyValueTreeValueBuilderERKNS_17KeyValueTreeValueE"(ptr noundef nonnull align 8 dereferenceable(32) %7, ptr noundef %9, ptr noundef nonnull align 8 dereferenceable(8) %10)
  ret void
}

; Function Attrs: mustprogress nounwind uwtable
define internal noundef nonnull align 8 dereferenceable(8) ptr @"_ZNKSt9_Any_data9_M_accessIPZN3gmx32KeyValueTreeTransformRuleBuilder20addTransformToObjectERKSt8functionIFvPNS1_25KeyValueTreeObjectBuilderERKNS1_3AnyEEEE3$_0EERKT_v"(ptr noundef nonnull align 8 dereferenceable(16) %0) #0 align 2 {
  %2 = alloca ptr, align 8
  store ptr %0, ptr %2, align 8
  %3 = load ptr, ptr %2, align 8
  %4 = call noundef ptr @_ZNKSt9_Any_data9_M_accessEv(ptr noundef nonnull align 8 dereferenceable(16) %3) #16
  ret ptr %4
}

; Function Attrs: mustprogress uwtable
define internal void @"_ZSt10__invoke_rIvRZN3gmx32KeyValueTreeTransformRuleBuilder20addTransformToObjectERKSt8functionIFvPNS0_25KeyValueTreeObjectBuilderERKNS0_3AnyEEEE3$_0JPNS0_24KeyValueTreeValueBuilderERKNS0_17KeyValueTreeValueEEENSt9enable_ifIX16is_invocable_r_vIT_T0_DpT1_EESK_E4typeEOSL_DpOSM_"(ptr noundef nonnull align 8 dereferenceable(32) %0, ptr noundef nonnull align 8 dereferenceable(8) %1, ptr noundef nonnull align 8 dereferenceable(8) %2) #2 {
  %4 = alloca ptr, align 8
  %5 = alloca ptr, align 8
  %6 = alloca ptr, align 8
  store ptr %0, ptr %4, align 8
  store ptr %1, ptr %5, align 8
  store ptr %2, ptr %6, align 8
  %7 = load ptr, ptr %4, align 8
  %8 = load ptr, ptr %5, align 8
  %9 = load ptr, ptr %6, align 8
  call void @"_ZSt13__invoke_implIvRZN3gmx32KeyValueTreeTransformRuleBuilder20addTransformToObjectERKSt8functionIFvPNS0_25KeyValueTreeObjectBuilderERKNS0_3AnyEEEE3$_0JPNS0_24KeyValueTreeValueBuilderERKNS0_17KeyValueTreeValueEEET_St14__invoke_otherOT0_DpOT1_"(ptr noundef nonnull align 8 dereferenceable(32) %7, ptr noundef nonnull align 8 dereferenceable(8) %8, ptr noundef nonnull align 8 dereferenceable(8) %9)
  ret void
}

; Function Attrs: mustprogress nounwind uwtable
define internal noundef ptr @"_ZNSt14_Function_base13_Base_managerIZN3gmx32KeyValueTreeTransformRuleBuilder20addTransformToObjectERKSt8functionIFvPNS1_25KeyValueTreeObjectBuilderERKNS1_3AnyEEEE3$_0E14_M_get_pointerERKSt9_Any_data"(ptr noundef nonnull align 8 dereferenceable(16) %0) #0 align 2 {
  %2 = alloca ptr, align 8
  store ptr %0, ptr %2, align 8
  %3 = load ptr, ptr %2, align 8
  %4 = call noundef nonnull align 8 dereferenceable(8) ptr @"_ZNKSt9_Any_data9_M_accessIPZN3gmx32KeyValueTreeTransformRuleBuilder20addTransformToObjectERKSt8functionIFvPNS1_25KeyValueTreeObjectBuilderERKNS1_3AnyEEEE3$_0EERKT_v"(ptr noundef nonnull align 8 dereferenceable(16) %3) #16
  %5 = load ptr, ptr %4, align 8
  ret ptr %5
}

; Function Attrs: mustprogress uwtable
define internal void @"_ZNSt17_Function_handlerIFvPN3gmx24KeyValueTreeValueBuilderERKNS0_17KeyValueTreeValueEEZNS0_32KeyValueTreeTransformRuleBuilder20addTransformToObjectERKSt8functionIFvPNS0_25KeyValueTreeObjectBuilderERKNS0_3AnyEEEE3$_0E9_M_invokeERKSt9_Any_dataOS2_S5_"(ptr noundef nonnull align 8 dereferenceable(16) %0, ptr noundef nonnull align 8 dereferenceable(8) %1, ptr noundef nonnull align 8 dereferenceable(8) %2) #2 align 2 {
  %4 = alloca ptr, align 8
  %5 = alloca ptr, align 8
  %6 = alloca ptr, align 8
  store ptr %0, ptr %4, align 8
  store ptr %1, ptr %5, align 8
  store ptr %2, ptr %6, align 8
  %7 = load ptr, ptr %4, align 8
  %8 = call noundef ptr @"_ZNSt14_Function_base13_Base_managerIZN3gmx32KeyValueTreeTransformRuleBuilder20addTransformToObjectERKSt8functionIFvPNS1_25KeyValueTreeObjectBuilderERKNS1_3AnyEEEE3$_0E14_M_get_pointerERKSt9_Any_data"(ptr noundef nonnull align 8 dereferenceable(16) %7) #16
  %9 = load ptr, ptr %5, align 8
  %10 = load ptr, ptr %6, align 8
  call void @"_ZSt10__invoke_rIvRZN3gmx32KeyValueTreeTransformRuleBuilder20addTransformToObjectERKSt8functionIFvPNS0_25KeyValueTreeObjectBuilderERKNS0_3AnyEEEE3$_0JPNS0_24KeyValueTreeValueBuilderERKNS0_17KeyValueTreeValueEEENSt9enable_ifIX16is_invocable_r_vIT_T0_DpT1_EESK_E4typeEOSL_DpOSM_"(ptr noundef nonnull align 8 dereferenceable(32) %8, ptr noundef nonnull align 8 dereferenceable(8) %9, ptr noundef nonnull align 8 dereferenceable(8) %10)
  ret void
}