; Function Attrs: mustprogress uwtable
define internal void @"_ZNSt17_Function_handlerIFvPN3gmx24KeyValueTreeValueBuilderERKNS0_17KeyValueTreeValueEEZNS0_32KeyValueTreeTransformRuleBuilder20addTransformToObjectERKSt8functionIFvPNS0_25KeyValueTreeObjectBuilderERKNS0_3AnyEEEE3$_0E9_M_invokeERKSt9_Any_dataOS2_S5_"(ptr nocapture noundef nonnull readonly align 8 dereferenceable(16) %0, ptr nocapture noundef nonnull readonly align 8 dereferenceable(8) %1, ptr noundef nonnull align 8 dereferenceable(8) %2) #3 align 2 {
  %4 = alloca ptr, align 8
  %5 = alloca %"class.gmx::KeyValueTreeObjectBuilder", align 8
  %.val = load ptr, ptr %0, align 8
  %.val3 = load ptr, ptr %1, align 8
  call void @llvm.lifetime.start.p0(i64 8, ptr nonnull %5)
  %6 = tail call ptr @_ZN3gmx24KeyValueTreeValueBuilder12createObjectEv(ptr noundef nonnull align 8 dereferenceable(8) %.val3)
  store ptr %6, ptr %5, align 8
  call void @llvm.lifetime.start.p0(i64 8, ptr nonnull %4)
  store ptr %5, ptr %4, align 8
  %7 = getelementptr inbounds i8, ptr %.val, i64 16
  %8 = load ptr, ptr %7, align 8
  %.not.i.i.i.i.i = icmp eq ptr %8, null
  br i1 %.not.i.i.i.i.i, label %9, label %"_ZSt10__invoke_rIvRZN3gmx32KeyValueTreeTransformRuleBuilder20addTransformToObjectERKSt8functionIFvPNS0_25KeyValueTreeObjectBuilderERKNS0_3AnyEEEE3$_0JPNS0_24KeyValueTreeValueBuilderERKNS0_17KeyValueTreeValueEEENSt9enable_ifIX16is_invocable_r_vIT_T0_DpT1_EESK_E4typeEOSL_DpOSM_.exit"

9:                                                ; preds = %3
  call void @_ZSt25__throw_bad_function_callv() #27
  unreachable

"_ZSt10__invoke_rIvRZN3gmx32KeyValueTreeTransformRuleBuilder20addTransformToObjectERKSt8functionIFvPNS0_25KeyValueTreeObjectBuilderERKNS0_3AnyEEEE3$_0JPNS0_24KeyValueTreeValueBuilderERKNS0_17KeyValueTreeValueEEENSt9enable_ifIX16is_invocable_r_vIT_T0_DpT1_EESK_E4typeEOSL_DpOSM_.exit": ; preds = %3
  %10 = getelementptr inbounds i8, ptr %.val, i64 24
  %11 = load ptr, ptr %10, align 8
  call void %11(ptr noundef nonnull align 8 dereferenceable(16) %.val, ptr noundef nonnull align 8 dereferenceable(8) %4, ptr noundef nonnull align 8 dereferenceable(8) %2)
  call void @llvm.lifetime.end.p0(i64 8, ptr nonnull %4)
  call void @llvm.lifetime.end.p0(i64 8, ptr nonnull %5)
  ret void
}